; Function Attrs: mustprogress uwtable
define void @_ZN17grpc_event_engine12experimental12AsyncConnect16OnTimeoutExpiredEN4absl12lts_202308026StatusE(ptr noundef nonnull align 16 dereferenceable(233) %this, ptr nocapture noundef %status) local_unnamed_addr #3 align 2 personality ptr @__gxx_personality_v0 {
entry:
  %agg.tmp = alloca %"class.absl::lts_20230802::Status", align 8
  tail call void @_ZN4absl12lts_202308025Mutex4LockEv(ptr noundef nonnull align 8 dereferenceable(8) %this)
  %fd_ = getelementptr inbounds i8, ptr %this, i64 96
  %0 = load ptr, ptr %fd_, align 16
  %cmp.not = icmp eq ptr %0, null
  br i1 %cmp.not, label %if.end, label %if.then

if.then:                                          ; preds = %entry
  %1 = load i64, ptr %status, align 8
  store i64 %1, ptr %agg.tmp, align 8
  store i64 54, ptr %status, align 8
  %vtable = load ptr, ptr %0, align 8
  %vfn = getelementptr inbounds i8, ptr %vtable, i64 16
  %2 = load ptr, ptr %vfn, align 8
  invoke void %2(ptr noundef nonnull align 8 dereferenceable(8) %0, ptr noundef nonnull %agg.tmp)
          to label %invoke.cont unwind label %lpad

invoke.cont:                                      ; preds = %if.then
  %3 = load i64, ptr %agg.tmp, align 8
  %and.i.i.i = and i64 %3, 1
  %cmp.i.i.i = icmp eq i64 %and.i.i.i, 0
  br i1 %cmp.i.i.i, label %if.end, label %if.then.i.i

if.then.i.i:                                      ; preds = %invoke.cont
  invoke void @_ZN4absl12lts_202308026Status15UnrefNonInlinedEm(i64 noundef %3)
          to label %if.end unwind label %terminate.lpad.i

terminate.lpad.i:                                 ; preds = %if.then.i.i
  %4 = landingpad { ptr, i32 }
          catch ptr null
  %5 = extractvalue { ptr, i32 } %4, 0
  call void @__clang_call_terminate(ptr %5) #27
  unreachable

lpad:                                             ; preds = %if.then
  %6 = landingpad { ptr, i32 }
          cleanup
  call void @_ZN4absl12lts_202308026StatusD2Ev(ptr noundef nonnull align 8 dereferenceable(8) %agg.tmp) #26
  invoke void @_ZN4absl12lts_202308025Mutex6UnlockEv(ptr noundef nonnull align 8 dereferenceable(8) %this)
          to label %_ZN4absl12lts_202308029MutexLockD2Ev.exit unwind label %terminate.lpad.i1

terminate.lpad.i1:                                ; preds = %lpad
  %7 = landingpad { ptr, i32 }
          catch ptr null
  %8 = extractvalue { ptr, i32 } %7, 0
  call void @__clang_call_terminate(ptr %8) #27
  unreachable

_ZN4absl12lts_202308029MutexLockD2Ev.exit:        ; preds = %lpad
  resume { ptr, i32 } %6

if.end:                                           ; preds = %if.then.i.i, %invoke.cont, %entry
  %refs_ = getelementptr inbounds i8, ptr %this, i64 88
  %9 = load i32, ptr %refs_, align 8
  %dec = add nsw i32 %9, -1
  store i32 %dec, ptr %refs_, align 8
  invoke void @_ZN4absl12lts_202308025Mutex6UnlockEv(ptr noundef nonnull align 8 dereferenceable(8) %this)
          to label %_ZN4absl12lts_202308029MutexLockD2Ev.exit3 unwind label %terminate.lpad.i2

terminate.lpad.i2:                                ; preds = %if.end
  %10 = landingpad { ptr, i32 }
          catch ptr null
  %11 = extractvalue { ptr, i32 } %10, 0
  call void @__clang_call_terminate(ptr %11) #27
  unreachable

_ZN4absl12lts_202308029MutexLockD2Ev.exit3:       ; preds = %if.end
  %cmp3.not = icmp eq i32 %dec, 0
  br i1 %cmp3.not, label %delete.notnull, label %if.end5

delete.notnull:                                   ; preds = %_ZN4absl12lts_202308029MutexLockD2Ev.exit3
  call void @_ZN17grpc_event_engine12experimental12AsyncConnectD1Ev(ptr noundef nonnull align 16 dereferenceable(233) %this) #26
  call void @_ZdlPv(ptr noundef nonnull %this) #28
  br label %if.end5

if.end5:                                          ; preds = %delete.notnull, %_ZN4absl12lts_202308029MutexLockD2Ev.exit3
  ret void
}